; Function Attrs: mustprogress uwtable
define noundef zeroext i1 @_ZNK32pxrInternal_v0_24__pxrReserved__7UsdPrim11CanApplyAPIERKNS_7TfTokenEjS3_PNSt7__cxx1112basic_stringIcSt11char_traitsIcESaIcEEE(ptr noundef nonnull align 8 dereferenceable(32) %0, ptr noundef nonnull align 8 dereferenceable(8) %1, i32 noundef %2, ptr noundef nonnull align 8 dereferenceable(8) %3, ptr noundef %4) local_unnamed_addr #0 align 2 {
  %6 = tail call noundef ptr @_ZN32pxrInternal_v0_24__pxrReserved__17UsdSchemaRegistry14FindSchemaInfoERKNS_7TfTokenEj(ptr noundef nonnull align 8 dereferenceable(8) %1, i32 noundef %2)
  %.not = icmp eq ptr %6, null
  br i1 %.not, label %9, label %7

7:                                                ; preds = %5
  %8 = tail call noundef zeroext i1 @_ZNK32pxrInternal_v0_24__pxrReserved__7UsdPrim25_CanApplyMultipleApplyAPIERKNS_17UsdSchemaRegistry10SchemaInfoERKNS_7TfTokenEPNSt7__cxx1112basic_stringIcSt11char_traitsIcESaIcEEE(ptr noundef nonnull align 8 dereferenceable(32) %0, ptr noundef nonnull align 8 dereferenceable(32) %6, ptr noundef nonnull align 8 dereferenceable(8) %3, ptr noundef %4)
  br label %10

9:                                                ; preds = %5
  %.val = load ptr, ptr %1, align 8
  tail call fastcc void @_ZN32pxrInternal_v0_24__pxrReserved__L25_ReportInvalidSchemaErrorEPKcRKNS_7TfTokenEjPNSt7__cxx1112basic_stringIcSt11char_traitsIcESaIcEEE(ptr noundef nonnull @.str.2, ptr %.val, i32 noundef %2, ptr noundef %4)
  br label %10

10:                                               ; preds = %9, %7
  %.0 = phi i1 [ %8, %7 ], [ false, %9 ]
  ret i1 %.0
}